; Function Attrs: nounwind uwtable
define internal fastcc zeroext i1 @ConversionIsVisibleExt(i32 noundef %0, ptr noundef writeonly captures(address_is_null) %1) unnamed_addr #0 {
  %3 = zext i32 %0 to i64
  %4 = tail call ptr @SearchSysCache1(i32 noundef 20, i64 noundef %3) #19
  %.not = icmp eq ptr %4, null
  br i1 %.not, label %5, label %10

5:                                                ; preds = %2
  %.not18 = icmp eq ptr %1, null
  br i1 %.not18, label %7, label %6

6:                                                ; preds = %5
  store i8 1, ptr %1, align 1
  br label %45

7:                                                ; preds = %5
  %8 = tail call zeroext i1 @errstart_cold(i32 noundef 21, ptr noundef null) #21
  tail call void @llvm.assume(i1 %8)
  %9 = tail call i32 (ptr, ...) @errmsg_internal(ptr noundef nonnull @.str.37, i32 noundef %0) #19
  tail call void @errfinish(ptr noundef nonnull @.str.1, i32 noundef 2536, ptr noundef nonnull @__func__.ConversionIsVisibleExt) #19
  unreachable

10:                                               ; preds = %2
  %11 = getelementptr i8, ptr %4, i64 16
  %.val = load ptr, ptr %11, align 8
  %12 = getelementptr inbounds nuw i8, ptr %.val, i64 22
  %13 = load i8, ptr %12, align 2
  %14 = zext i8 %13 to i64
  %15 = getelementptr inbounds nuw i8, ptr %.val, i64 %14
  tail call fastcc void @recomputeNamespacePath()
  %16 = getelementptr inbounds nuw i8, ptr %15, i64 68
  %17 = load i32, ptr %16, align 4
  %.not19 = icmp eq i32 %17, 11
  br i1 %.not19, label %21, label %18

18:                                               ; preds = %10
  %19 = load ptr, ptr @activeSearchPath, align 8
  %20 = tail call zeroext i1 @list_member_oid(ptr noundef %19, i32 noundef %17) #19
  br i1 %20, label %21, label %44

21:                                               ; preds = %18, %10
  %22 = getelementptr inbounds nuw i8, ptr %15, i64 4
  tail call fastcc void @recomputeNamespacePath()
  %23 = load ptr, ptr @activeSearchPath, align 8
  %24 = getelementptr inbounds nuw i8, ptr %23, i64 4
  %25 = ptrtoint ptr %22 to i64
  %.not.i = icmp eq ptr %23, null
  br i1 %.not.i, label %ConversionGetConid.exit, label %.lr.ph.i

.lr.ph.i:                                         ; preds = %21
  %26 = getelementptr inbounds nuw i8, ptr %23, i64 16
  %27 = load i32, ptr %24, align 4
  %28 = icmp sgt i32 %27, 0
  br i1 %28, label %.lr.ph39.preheader.i, label %ConversionGetConid.exit

.lr.ph39.preheader.i:                             ; preds = %.lr.ph.i
  %.pre41.i = load i32, ptr @myTempNamespace, align 4
  br label %.lr.ph39.i

.lr.ph39.i:                                       ; preds = %select.unfold.i, %.lr.ph39.preheader.i
  %29 = phi i32 [ %27, %.lr.ph39.preheader.i ], [ %38, %select.unfold.i ]
  %30 = phi i32 [ %.pre41.i, %.lr.ph39.preheader.i ], [ %39, %select.unfold.i ]
  %indvars.iv.i = phi i64 [ 0, %.lr.ph39.preheader.i ], [ %indvars.iv.next.i, %select.unfold.i ]
  %31 = load ptr, ptr %26, align 8
  %32 = getelementptr inbounds nuw %union.ListCell, ptr %31, i64 %indvars.iv.i
  %33 = load i32, ptr %32, align 8
  %34 = icmp eq i32 %33, %30
  br i1 %34, label %select.unfold.i, label %35

35:                                               ; preds = %.lr.ph39.i
  %36 = zext i32 %33 to i64
  %37 = tail call i32 @GetSysCacheOid(i32 noundef 18, i16 noundef signext 1, i64 noundef %25, i64 noundef %36, i64 noundef 0, i64 noundef 0) #19
  %.not19.i = icmp eq i32 %37, 0
  br i1 %.not19.i, label %.select.unfold_crit_edge.i, label %ConversionGetConid.exit

.select.unfold_crit_edge.i:                       ; preds = %35
  %.pre.i = load i32, ptr @myTempNamespace, align 4
  %.pre42.i = load i32, ptr %24, align 4
  br label %select.unfold.i

select.unfold.i:                                  ; preds = %.select.unfold_crit_edge.i, %.lr.ph39.i
  %38 = phi i32 [ %.pre42.i, %.select.unfold_crit_edge.i ], [ %29, %.lr.ph39.i ]
  %39 = phi i32 [ %.pre.i, %.select.unfold_crit_edge.i ], [ %30, %.lr.ph39.i ]
  %indvars.iv.next.i = add nuw nsw i64 %indvars.iv.i, 1
  %40 = sext i32 %38 to i64
  %41 = icmp slt i64 %indvars.iv.next.i, %40
  br i1 %41, label %.lr.ph39.i, label %ConversionGetConid.exit

ConversionGetConid.exit:                          ; preds = %35, %select.unfold.i, %21, %.lr.ph.i
  %42 = phi i32 [ 0, %21 ], [ 0, %.lr.ph.i ], [ %37, %35 ], [ 0, %select.unfold.i ]
  %43 = icmp eq i32 %42, %0
  br label %44

44:                                               ; preds = %18, %ConversionGetConid.exit
  %.014 = phi i1 [ %43, %ConversionGetConid.exit ], [ false, %18 ]
  tail call void @ReleaseSysCache(ptr noundef nonnull %4) #19
  br label %45

45:                                               ; preds = %44, %6
  %.0 = phi i1 [ %.014, %44 ], [ false, %6 ]
  ret i1 %.0
}